target datalayout = "e-m:e-p270:32:32-p271:32:32-p272:64:64-i64:64-i128:128-f80:128-n8:16:32:64-S128"
target triple = "x86_64-pc-linux-gnu"

%struct.lxb_html_tokenizer = type { ptr, ptr, ptr, ptr, ptr, ptr, ptr, ptr, ptr, ptr, ptr, ptr, ptr, ptr, ptr, i64, ptr, ptr, ptr, ptr, ptr, i64, i64, ptr, ptr, i64, i64, i32, i32, i8, i32, i32, i8, ptr, i64 }
%struct.lxb_html_token_t = type { ptr, ptr, i64, i64, ptr, ptr, ptr, ptr, ptr, i64, i64, i32 }

; Function Attrs: nounwind uwtable
define internal void @lxb_html_token_clean(ptr noundef %0) #0 {
  %2 = alloca ptr, align 8
  store ptr %0, ptr %2, align 8
  %3 = load ptr, ptr %2, align 8
  call void @llvm.memset.p0.i64(ptr align 8 %3, i8 0, i64 96, i1 false)
  ret void
}

; Function Attrs: nounwind uwtable
define internal ptr @lxb_html_tokenizer_state_before_attribute_value(ptr noundef %0, ptr noundef %1, ptr noundef %2) #0 {
  %4 = alloca ptr, align 8
  %5 = alloca ptr, align 8
  %6 = alloca ptr, align 8
  %7 = alloca ptr, align 8
  store ptr %0, ptr %5, align 8
  store ptr %1, ptr %6, align 8
  store ptr %2, ptr %7, align 8
  br label %8

8:                                                ; preds = %92, %3
  %9 = load ptr, ptr %6, align 8
  %10 = load ptr, ptr %7, align 8
  %11 = icmp ne ptr %9, %10
  br i1 %11, label %12, label %95

12:                                               ; preds = %8
  %13 = load ptr, ptr %6, align 8
  %14 = load i8, ptr %13, align 1
  %15 = zext i8 %14 to i32
  switch i32 %15, label %88 [
    i32 9, label %16
    i32 10, label %16
    i32 12, label %16
    i32 13, label %16
    i32 32, label %16
    i32 34, label %17
    i32 39, label %22
    i32 62, label %27
  ]

16:                                               ; preds = %12, %12, %12, %12, %12
  br label %92

17:                                               ; preds = %12
  %18 = load ptr, ptr %5, align 8
  %19 = getelementptr inbounds %struct.lxb_html_tokenizer, ptr %18, i32 0, i32 0
  store ptr @lxb_html_tokenizer_state_attribute_value_double_quoted, ptr %19, align 8
  %20 = load ptr, ptr %6, align 8
  %21 = getelementptr inbounds i8, ptr %20, i64 1
  store ptr %21, ptr %4, align 8
  br label %97

22:                                               ; preds = %12
  %23 = load ptr, ptr %5, align 8
  %24 = getelementptr inbounds %struct.lxb_html_tokenizer, ptr %23, i32 0, i32 0
  store ptr @lxb_html_tokenizer_state_attribute_value_single_quoted, ptr %24, align 8
  %25 = load ptr, ptr %6, align 8
  %26 = getelementptr inbounds i8, ptr %25, i64 1
  store ptr %26, ptr %4, align 8
  br label %97

27:                                               ; preds = %12
  %28 = load ptr, ptr %5, align 8
  %29 = getelementptr inbounds %struct.lxb_html_tokenizer, ptr %28, i32 0, i32 0
  store ptr @lxb_html_tokenizer_state_data_before, ptr %29, align 8
  %30 = load ptr, ptr %5, align 8
  %31 = getelementptr inbounds %struct.lxb_html_tokenizer, ptr %30, i32 0, i32 11
  %32 = load ptr, ptr %31, align 8
  %33 = load ptr, ptr %6, align 8
  %34 = call ptr @lxb_html_tokenizer_error_add(ptr noundef %32, ptr noundef %33, i32 noundef 21)
  br label %35

35:                                               ; preds = %27
  %36 = load ptr, ptr %5, align 8
  %37 = getelementptr inbounds %struct.lxb_html_tokenizer, ptr %36, i32 0, i32 8
  %38 = load ptr, ptr %37, align 8
  %39 = getelementptr inbounds %struct.lxb_html_token_t, ptr %38, i32 0, i32 0
  %40 = load ptr, ptr %39, align 8
  %41 = load ptr, ptr %5, align 8
  %42 = getelementptr inbounds %struct.lxb_html_tokenizer, ptr %41, i32 0, i32 8
  %43 = load ptr, ptr %42, align 8
  %44 = getelementptr inbounds %struct.lxb_html_token_t, ptr %43, i32 0, i32 1
  %45 = load ptr, ptr %44, align 8
  %46 = icmp ne ptr %40, %45
  br i1 %46, label %47, label %76

47:                                               ; preds = %35
  %48 = load ptr, ptr %5, align 8
  %49 = getelementptr inbounds %struct.lxb_html_tokenizer, ptr %48, i32 0, i32 2
  %50 = load ptr, ptr %49, align 8
  %51 = load ptr, ptr %5, align 8
  %52 = load ptr, ptr %5, align 8
  %53 = getelementptr inbounds %struct.lxb_html_tokenizer, ptr %52, i32 0, i32 8
  %54 = load ptr, ptr %53, align 8
  %55 = load ptr, ptr %5, align 8
  %56 = getelementptr inbounds %struct.lxb_html_tokenizer, ptr %55, i32 0, i32 3
  %57 = load ptr, ptr %56, align 8
  %58 = call ptr %50(ptr noundef %51, ptr noundef %54, ptr noundef %57)
  %59 = load ptr, ptr %5, align 8
  %60 = getelementptr inbounds %struct.lxb_html_tokenizer, ptr %59, i32 0, i32 8
  store ptr %58, ptr %60, align 8
  %61 = load ptr, ptr %5, align 8
  %62 = getelementptr inbounds %struct.lxb_html_tokenizer, ptr %61, i32 0, i32 8
  %63 = load ptr, ptr %62, align 8
  %64 = icmp eq ptr %63, null
  br i1 %64, label %65, label %75

65:                                               ; preds = %47
  %66 = load ptr, ptr %5, align 8
  %67 = getelementptr inbounds %struct.lxb_html_tokenizer, ptr %66, i32 0, i32 31
  %68 = load i32, ptr %67, align 8
  %69 = icmp eq i32 %68, 0
  br i1 %69, label %70, label %73

70:                                               ; preds = %65
  %71 = load ptr, ptr %5, align 8
  %72 = getelementptr inbounds %struct.lxb_html_tokenizer, ptr %71, i32 0, i32 31
  store i32 1, ptr %72, align 8
  br label %73

73:                                               ; preds = %70, %65
  %74 = load ptr, ptr %7, align 8
  store ptr %74, ptr %4, align 8
  br label %97

75:                                               ; preds = %47
  br label %76

76:                                               ; preds = %75, %35
  %77 = load ptr, ptr %5, align 8
  %78 = getelementptr inbounds %struct.lxb_html_tokenizer, ptr %77, i32 0, i32 8
  %79 = load ptr, ptr %78, align 8
  call void @lxb_html_token_clean(ptr noundef %79)
  %80 = load ptr, ptr %5, align 8
  %81 = getelementptr inbounds %struct.lxb_html_tokenizer, ptr %80, i32 0, i32 16
  %82 = load ptr, ptr %81, align 8
  %83 = load ptr, ptr %5, align 8
  %84 = getelementptr inbounds %struct.lxb_html_tokenizer, ptr %83, i32 0, i32 17
  store ptr %82, ptr %84, align 8
  br label %85

85:                                               ; preds = %76
  %86 = load ptr, ptr %6, align 8
  %87 = getelementptr inbounds i8, ptr %86, i64 1
  store ptr %87, ptr %4, align 8
  br label %97

88:                                               ; preds = %12
  %89 = load ptr, ptr %5, align 8
  %90 = getelementptr inbounds %struct.lxb_html_tokenizer, ptr %89, i32 0, i32 0
  store ptr @lxb_html_tokenizer_state_attribute_value_unquoted, ptr %90, align 8
  %91 = load ptr, ptr %6, align 8
  store ptr %91, ptr %4, align 8
  br label %97

92:                                               ; preds = %16
  %93 = load ptr, ptr %6, align 8
  %94 = getelementptr inbounds i8, ptr %93, i32 1
  store ptr %94, ptr %6, align 8
  br label %8

95:                                               ; preds = %8
  %96 = load ptr, ptr %6, align 8
  store ptr %96, ptr %4, align 8
  br label %97

97:                                               ; preds = %95, %88, %85, %73, %22, %17
  %98 = load ptr, ptr %4, align 8
  ret ptr %98
}