; Function Attrs: nounwind uwtable
define internal ptr @lxb_html_tokenizer_state_before_attribute_value(ptr noundef %0, ptr noundef %1, ptr noundef readnone %2) #1 {
  %.not37 = icmp eq ptr %1, %2
  br i1 %.not37, label %.loopexit, label %.lr.ph.preheader

.lr.ph.preheader:                                 ; preds = %3
  %4 = ptrtoint ptr %2 to i64
  %5 = ptrtoint ptr %1 to i64
  %6 = sub i64 %4, %5
  %scevgep = getelementptr i8, ptr %1, i64 %6
  br label %.lr.ph

.lr.ph:                                           ; preds = %.lr.ph.preheader, %40
  %.03038 = phi ptr [ %41, %40 ], [ %1, %.lr.ph.preheader ]
  %7 = load i8, ptr %.03038, align 1
  switch i8 %7, label %39 [
    i8 9, label %40
    i8 10, label %40
    i8 12, label %40
    i8 13, label %40
    i8 32, label %40
    i8 34, label %8
    i8 39, label %10
    i8 62, label %12
  ]

8:                                                ; preds = %.lr.ph
  store ptr @lxb_html_tokenizer_state_attribute_value_double_quoted, ptr %0, align 8
  %9 = getelementptr inbounds i8, ptr %.03038, i64 1
  br label %.loopexit

10:                                               ; preds = %.lr.ph
  store ptr @lxb_html_tokenizer_state_attribute_value_single_quoted, ptr %0, align 8
  %11 = getelementptr inbounds i8, ptr %.03038, i64 1
  br label %.loopexit

12:                                               ; preds = %.lr.ph
  store ptr @lxb_html_tokenizer_state_data_before, ptr %0, align 8
  %13 = getelementptr inbounds i8, ptr %0, i64 88
  %14 = load ptr, ptr %13, align 8
  %15 = tail call ptr @lxb_html_tokenizer_error_add(ptr noundef %14, ptr noundef nonnull %.03038, i32 noundef 21) #5
  %16 = getelementptr inbounds i8, ptr %0, i64 64
  %17 = load ptr, ptr %16, align 8
  %18 = load ptr, ptr %17, align 8
  %19 = getelementptr inbounds i8, ptr %17, i64 8
  %20 = load ptr, ptr %19, align 8
  %.not32 = icmp eq ptr %18, %20
  br i1 %.not32, label %33, label %21

21:                                               ; preds = %12
  %22 = getelementptr inbounds i8, ptr %0, i64 16
  %23 = load ptr, ptr %22, align 8
  %24 = getelementptr inbounds i8, ptr %0, i64 24
  %25 = load ptr, ptr %24, align 8
  %26 = tail call ptr %23(ptr noundef nonnull %0, ptr noundef nonnull %17, ptr noundef %25) #5
  store ptr %26, ptr %16, align 8
  %27 = icmp eq ptr %26, null
  br i1 %27, label %28, label %33

28:                                               ; preds = %21
  %29 = getelementptr inbounds i8, ptr %0, i64 232
  %30 = load i32, ptr %29, align 8
  %31 = icmp eq i32 %30, 0
  br i1 %31, label %32, label %.loopexit

32:                                               ; preds = %28
  store i32 1, ptr %29, align 8
  br label %.loopexit

33:                                               ; preds = %21, %12
  %34 = phi ptr [ %26, %21 ], [ %17, %12 ]
  tail call void @llvm.memset.p0.i64(ptr noundef nonnull align 8 dereferenceable(96) %34, i8 0, i64 96, i1 false)
  %35 = getelementptr inbounds i8, ptr %0, i64 128
  %36 = load ptr, ptr %35, align 8
  %37 = getelementptr inbounds i8, ptr %0, i64 136
  store ptr %36, ptr %37, align 8
  %38 = getelementptr inbounds i8, ptr %.03038, i64 1
  br label %.loopexit

39:                                               ; preds = %.lr.ph
  store ptr @lxb_html_tokenizer_state_attribute_value_unquoted, ptr %0, align 8
  br label %.loopexit

40:                                               ; preds = %.lr.ph, %.lr.ph, %.lr.ph, %.lr.ph, %.lr.ph
  %41 = getelementptr inbounds i8, ptr %.03038, i64 1
  %.not = icmp eq ptr %41, %2
  br i1 %.not, label %.loopexit, label %.lr.ph

.loopexit:                                        ; preds = %40, %3, %28, %32, %39, %33, %10, %8
  %.0 = phi ptr [ %.03038, %39 ], [ %38, %33 ], [ %11, %10 ], [ %9, %8 ], [ %2, %32 ], [ %2, %28 ], [ %1, %3 ], [ %scevgep, %40 ]
  ret ptr %.0
}